target datalayout = "e-m:e-p270:32:32-p271:32:32-p272:64:64-i64:64-i128:128-f80:128-n8:16:32:64-S128"
target triple = "x86_64-pc-linux-gnu"

%struct.AVBSFContext = type { ptr, ptr, ptr, ptr, ptr, %struct.AVRational, %struct.AVRational }
%struct.AVRational = type { i32, i32 }
%struct.EVCFMergeContext = type { ptr, ptr, %struct.EVCParamSets, %struct.EVCParserPoc, %struct.AccessUnitBuffer }
%struct.EVCParamSets = type { [16 x ptr], [64 x ptr] }
%struct.EVCParserPoc = type { i32, i32, i32 }
%struct.AccessUnitBuffer = type { ptr, i64, i32 }

; Function Attrs: nounwind uwtable
define internal void @evc_frame_merge_flush(ptr noundef %0) #0 {
  %2 = alloca ptr, align 8
  %3 = alloca ptr, align 8
  store ptr %0, ptr %2, align 8, !tbaa !4
  call void @llvm.lifetime.start.p0(i64 8, ptr %3) #8
  %4 = load ptr, ptr %2, align 8, !tbaa !4
  %5 = getelementptr inbounds nuw %struct.AVBSFContext, ptr %4, i32 0, i32 2
  %6 = load ptr, ptr %5, align 8, !tbaa !9
  store ptr %6, ptr %3, align 8, !tbaa !16
  %7 = load ptr, ptr %3, align 8, !tbaa !16
  %8 = getelementptr inbounds nuw %struct.EVCFMergeContext, ptr %7, i32 0, i32 2
  call void @ff_evc_ps_free(ptr noundef %8)
  %9 = load ptr, ptr %3, align 8, !tbaa !16
  %10 = getelementptr inbounds nuw %struct.EVCFMergeContext, ptr %9, i32 0, i32 0
  %11 = load ptr, ptr %10, align 8, !tbaa !18
  call void @av_packet_unref(ptr noundef %11)
  %12 = load ptr, ptr %3, align 8, !tbaa !16
  %13 = getelementptr inbounds nuw %struct.EVCFMergeContext, ptr %12, i32 0, i32 1
  %14 = load ptr, ptr %13, align 8, !tbaa !26
  call void @av_packet_unref(ptr noundef %14)
  %15 = load ptr, ptr %3, align 8, !tbaa !16
  %16 = getelementptr inbounds nuw %struct.EVCFMergeContext, ptr %15, i32 0, i32 4
  %17 = getelementptr inbounds nuw %struct.AccessUnitBuffer, ptr %16, i32 0, i32 1
  store i64 0, ptr %17, align 8, !tbaa !33
  call void @llvm.lifetime.end.p0(i64 8, ptr %3) #8
  ret void
}