; Function Attrs: nounwind uwtable
define internal void @evc_frame_merge_flush(ptr noundef readonly captures(none) %0) #0 {
  %2 = getelementptr inbounds nuw i8, ptr %0, i64 16
  %3 = load ptr, ptr %2, align 8, !tbaa !4
  %4 = getelementptr inbounds nuw i8, ptr %3, i64 16
  tail call void @ff_evc_ps_free(ptr noundef nonnull %4) #7
  %5 = load ptr, ptr %3, align 8, !tbaa !14
  tail call void @av_packet_unref(ptr noundef %5) #7
  %6 = getelementptr inbounds nuw i8, ptr %3, i64 8
  %7 = load ptr, ptr %6, align 8, !tbaa !22
  tail call void @av_packet_unref(ptr noundef %7) #7
  %8 = getelementptr inbounds nuw i8, ptr %3, i64 680
  store i64 0, ptr %8, align 8, !tbaa !27
  ret void
}